; Function Attrs: mustprogress ssp uwtable
define void @_ZNK6open3d4core7HashMap16GetActiveIndicesERNS0_6TensorE(ptr noundef nonnull align 8 dereferenceable(152) %0, ptr noundef nonnull align 8 dereferenceable(160) %1) local_unnamed_addr #2 align 2 {
  %3 = getelementptr inbounds nuw i8, ptr %0, i64 8
  %4 = load ptr, ptr %3, align 8, !tbaa !32
  %5 = load ptr, ptr %4, align 8, !tbaa !4
  %6 = getelementptr inbounds nuw i8, ptr %5, i64 64
  %7 = load ptr, ptr %6, align 8
  %8 = tail call noundef i64 %7(ptr noundef nonnull align 8 dereferenceable(72) %4)
  tail call void @_ZNK6open3d4core7HashMap20PrepareIndicesOutputERNS0_6TensorEl(ptr noundef nonnull align 8 dereferenceable(152) %0, ptr noundef nonnull align 8 dereferenceable(160) %1, i64 noundef %8)
  %9 = load ptr, ptr %3, align 8, !tbaa !32
  %10 = getelementptr inbounds nuw i8, ptr %1, i64 104
  %11 = load ptr, ptr %10, align 8, !tbaa !53
  %12 = load ptr, ptr %9, align 8, !tbaa !4
  %13 = getelementptr inbounds nuw i8, ptr %12, i64 48
  %14 = load ptr, ptr %13, align 8
  %15 = tail call noundef i64 %14(ptr noundef nonnull align 8 dereferenceable(72) %9, ptr noundef %11)
  ret void
}